target datalayout = "e-m:e-p270:32:32-p271:32:32-p272:64:64-i64:64-i128:128-f80:128-n8:16:32:64-S128"
target triple = "x86_64-pc-linux-gnu"

%struct.H5S_hyper_span_info_t = type { i32, ptr, ptr, [2 x %struct.H5S_hyper_op_info_t], ptr, ptr, [0 x i64] }
%struct.H5S_hyper_op_info_t = type { i64, %union.anon.1 }
%union.anon.1 = type { ptr }
%struct.H5S_hyper_span_t = type { i64, i64, ptr, ptr }

@H5S_init_g = external global i8, align 1
@H5_libterm_g = external global i8, align 1

; Function Attrs: nounwind uwtable
define internal zeroext i1 @H5S__hyper_intersect_block_helper(ptr noundef %0, i32 noundef %1, ptr noundef %2, ptr noundef %3, i32 noundef %4, i64 noundef %5) #0 {
  %7 = alloca i1, align 1
  %8 = alloca ptr, align 8
  %9 = alloca i32, align 4
  %10 = alloca ptr, align 8
  %11 = alloca ptr, align 8
  %12 = alloca i32, align 4
  %13 = alloca i64, align 8
  %14 = alloca i8, align 1
  %15 = alloca ptr, align 8
  %16 = alloca i32, align 4
  %17 = alloca i32, align 4
  store ptr %0, ptr %8, align 8, !tbaa !107
  store i32 %1, ptr %9, align 4, !tbaa !10
  store ptr %2, ptr %10, align 8, !tbaa !33
  store ptr %3, ptr %11, align 8, !tbaa !33
  store i32 %4, ptr %12, align 4, !tbaa !10
  store i64 %5, ptr %13, align 8, !tbaa !15
  call void @llvm.lifetime.start.p0(i64 1, ptr %14) #7
  store i8 0, ptr %14, align 1, !tbaa !8
  %18 = load i8, ptr @H5S_init_g, align 1, !tbaa !8, !range !12, !noundef !13
  %19 = trunc i8 %18 to i1
  br i1 %19, label %24, label %20

20:                                               ; preds = %6
  %21 = load i8, ptr @H5_libterm_g, align 1, !tbaa !8, !range !12, !noundef !13
  %22 = trunc i8 %21 to i1
  %23 = xor i1 %22, true
  br label %24

24:                                               ; preds = %20, %6
  %25 = phi i1 [ true, %6 ], [ %23, %20 ]
  %26 = xor i1 %25, true
  %27 = xor i1 %26, true
  %28 = zext i1 %27 to i32
  %29 = sext i32 %28 to i64
  %30 = call i64 @llvm.expect.i64(i64 %29, i64 1)
  %31 = icmp ne i64 %30, 0
  br i1 %31, label %32, label %158

32:                                               ; preds = %24
  %33 = load ptr, ptr %8, align 8, !tbaa !107
  %34 = getelementptr inbounds nuw %struct.H5S_hyper_span_info_t, ptr %33, i32 0, i32 3
  %35 = load i32, ptr %12, align 4, !tbaa !10
  %36 = zext i32 %35 to i64
  %37 = getelementptr inbounds nuw [2 x %struct.H5S_hyper_op_info_t], ptr %34, i64 0, i64 %36
  %38 = getelementptr inbounds nuw %struct.H5S_hyper_op_info_t, ptr %37, i32 0, i32 0
  %39 = load i64, ptr %38, align 8, !tbaa !153
  %40 = load i64, ptr %13, align 8, !tbaa !15
  %41 = icmp ne i64 %39, %40
  br i1 %41, label %42, label %156

42:                                               ; preds = %32
  call void @llvm.lifetime.start.p0(i64 8, ptr %15) #7
  call void @llvm.lifetime.start.p0(i64 4, ptr %16) #7
  store i32 0, ptr %16, align 4, !tbaa !10
  br label %43

43:                                               ; preds = %80, %42
  %44 = load i32, ptr %16, align 4, !tbaa !10
  %45 = load i32, ptr %9, align 4, !tbaa !10
  %46 = icmp ult i32 %44, %45
  br i1 %46, label %47, label %83

47:                                               ; preds = %43
  %48 = load ptr, ptr %10, align 8, !tbaa !33
  %49 = load i32, ptr %16, align 4, !tbaa !10
  %50 = zext i32 %49 to i64
  %51 = getelementptr inbounds nuw i64, ptr %48, i64 %50
  %52 = load i64, ptr %51, align 8, !tbaa !15
  %53 = load ptr, ptr %8, align 8, !tbaa !107
  %54 = getelementptr inbounds nuw %struct.H5S_hyper_span_info_t, ptr %53, i32 0, i32 2
  %55 = load ptr, ptr %54, align 8, !tbaa !33
  %56 = load i32, ptr %16, align 4, !tbaa !10
  %57 = zext i32 %56 to i64
  %58 = getelementptr inbounds nuw i64, ptr %55, i64 %57
  %59 = load i64, ptr %58, align 8, !tbaa !15
  %60 = icmp ugt i64 %52, %59
  br i1 %60, label %75, label %61

61:                                               ; preds = %47
  %62 = load ptr, ptr %11, align 8, !tbaa !33
  %63 = load i32, ptr %16, align 4, !tbaa !10
  %64 = zext i32 %63 to i64
  %65 = getelementptr inbounds nuw i64, ptr %62, i64 %64
  %66 = load i64, ptr %65, align 8, !tbaa !15
  %67 = load ptr, ptr %8, align 8, !tbaa !107
  %68 = getelementptr inbounds nuw %struct.H5S_hyper_span_info_t, ptr %67, i32 0, i32 1
  %69 = load ptr, ptr %68, align 8, !tbaa !33
  %70 = load i32, ptr %16, align 4, !tbaa !10
  %71 = zext i32 %70 to i64
  %72 = getelementptr inbounds nuw i64, ptr %69, i64 %71
  %73 = load i64, ptr %72, align 8, !tbaa !15
  %74 = icmp ult i64 %66, %73
  br i1 %74, label %75, label %79

75:                                               ; preds = %61, %47
  br label %76

76:                                               ; preds = %75
  store i8 0, ptr %14, align 1, !tbaa !8
  store i32 7, ptr %17, align 4
  br label %153

77:                                               ; No predecessors!
  br label %78

78:                                               ; preds = %77
  br label %79

79:                                               ; preds = %78, %61
  br label %80

80:                                               ; preds = %79
  %81 = load i32, ptr %16, align 4, !tbaa !10
  %82 = add i32 %81, 1
  store i32 %82, ptr %16, align 4, !tbaa !10
  br label %43, !llvm.loop !288

83:                                               ; preds = %43
  %84 = load ptr, ptr %8, align 8, !tbaa !107
  %85 = getelementptr inbounds nuw %struct.H5S_hyper_span_info_t, ptr %84, i32 0, i32 4
  %86 = load ptr, ptr %85, align 8, !tbaa !99
  store ptr %86, ptr %15, align 8, !tbaa !99
  br label %87

87:                                               ; preds = %144, %83
  %88 = load ptr, ptr %15, align 8, !tbaa !99
  %89 = icmp ne ptr %88, null
  br i1 %89, label %90, label %145

90:                                               ; preds = %87
  %91 = load ptr, ptr %15, align 8, !tbaa !99
  %92 = getelementptr inbounds nuw %struct.H5S_hyper_span_t, ptr %91, i32 0, i32 1
  %93 = load i64, ptr %92, align 8, !tbaa !109
  %94 = load ptr, ptr %10, align 8, !tbaa !33
  %95 = load i64, ptr %94, align 8, !tbaa !15
  %96 = icmp ult i64 %93, %95
  br i1 %96, label %97, label %101

97:                                               ; preds = %90
  %98 = load ptr, ptr %15, align 8, !tbaa !99
  %99 = getelementptr inbounds nuw %struct.H5S_hyper_span_t, ptr %98, i32 0, i32 3
  %100 = load ptr, ptr %99, align 8, !tbaa !108
  store ptr %100, ptr %15, align 8, !tbaa !99
  br label %144

101:                                              ; preds = %90
  %102 = load ptr, ptr %15, align 8, !tbaa !99
  %103 = getelementptr inbounds nuw %struct.H5S_hyper_span_t, ptr %102, i32 0, i32 0
  %104 = load i64, ptr %103, align 8, !tbaa !101
  %105 = load ptr, ptr %11, align 8, !tbaa !33
  %106 = load i64, ptr %105, align 8, !tbaa !15
  %107 = icmp ugt i64 %104, %106
  br i1 %107, label %108, label %112

108:                                              ; preds = %101
  br label %109

109:                                              ; preds = %108
  store i8 0, ptr %14, align 1, !tbaa !8
  store i32 7, ptr %17, align 4
  br label %153

110:                                              ; No predecessors!
  br label %111

111:                                              ; preds = %110
  br label %143

112:                                              ; preds = %101
  %113 = load ptr, ptr %15, align 8, !tbaa !99
  %114 = getelementptr inbounds nuw %struct.H5S_hyper_span_t, ptr %113, i32 0, i32 2
  %115 = load ptr, ptr %114, align 8, !tbaa !103
  %116 = icmp eq ptr %115, null
  br i1 %116, label %117, label %121

117:                                              ; preds = %112
  br label %118

118:                                              ; preds = %117
  store i8 1, ptr %14, align 1, !tbaa !8
  store i32 7, ptr %17, align 4
  br label %153

119:                                              ; No predecessors!
  br label %120

120:                                              ; preds = %119
  br label %142

121:                                              ; preds = %112
  %122 = load ptr, ptr %15, align 8, !tbaa !99
  %123 = getelementptr inbounds nuw %struct.H5S_hyper_span_t, ptr %122, i32 0, i32 2
  %124 = load ptr, ptr %123, align 8, !tbaa !103
  %125 = load i32, ptr %9, align 4, !tbaa !10
  %126 = sub i32 %125, 1
  %127 = load ptr, ptr %10, align 8, !tbaa !33
  %128 = getelementptr inbounds i64, ptr %127, i64 1
  %129 = load ptr, ptr %11, align 8, !tbaa !33
  %130 = getelementptr inbounds i64, ptr %129, i64 1
  %131 = load i32, ptr %12, align 4, !tbaa !10
  %132 = load i64, ptr %13, align 8, !tbaa !15
  %133 = call zeroext i1 @H5S__hyper_intersect_block_helper(ptr noundef %124, i32 noundef %126, ptr noundef %128, ptr noundef %130, i32 noundef %131, i64 noundef %132)
  br i1 %133, label %134, label %138

134:                                              ; preds = %121
  br label %135

135:                                              ; preds = %134
  store i8 1, ptr %14, align 1, !tbaa !8
  store i32 7, ptr %17, align 4
  br label %153

136:                                              ; No predecessors!
  br label %137

137:                                              ; preds = %136
  br label %138

138:                                              ; preds = %137, %121
  %139 = load ptr, ptr %15, align 8, !tbaa !99
  %140 = getelementptr inbounds nuw %struct.H5S_hyper_span_t, ptr %139, i32 0, i32 3
  %141 = load ptr, ptr %140, align 8, !tbaa !108
  store ptr %141, ptr %15, align 8, !tbaa !99
  br label %142

142:                                              ; preds = %138, %120
  br label %143

143:                                              ; preds = %142, %111
  br label %144

144:                                              ; preds = %143, %97
  br label %87, !llvm.loop !289

145:                                              ; preds = %87
  %146 = load i64, ptr %13, align 8, !tbaa !15
  %147 = load ptr, ptr %8, align 8, !tbaa !107
  %148 = getelementptr inbounds nuw %struct.H5S_hyper_span_info_t, ptr %147, i32 0, i32 3
  %149 = load i32, ptr %12, align 4, !tbaa !10
  %150 = zext i32 %149 to i64
  %151 = getelementptr inbounds nuw [2 x %struct.H5S_hyper_op_info_t], ptr %148, i64 0, i64 %150
  %152 = getelementptr inbounds nuw %struct.H5S_hyper_op_info_t, ptr %151, i32 0, i32 0
  store i64 %146, ptr %152, align 8, !tbaa !153
  store i32 0, ptr %17, align 4
  br label %153

153:                                              ; preds = %135, %118, %109, %76, %145
  call void @llvm.lifetime.end.p0(i64 4, ptr %16) #7
  call void @llvm.lifetime.end.p0(i64 8, ptr %15) #7
  %154 = load i32, ptr %17, align 4
  switch i32 %154, label %161 [
    i32 0, label %155
    i32 7, label %157
  ]

155:                                              ; preds = %153
  br label %156

156:                                              ; preds = %155, %32
  br label %157

157:                                              ; preds = %156, %153
  br label %158

158:                                              ; preds = %157, %24
  %159 = load i8, ptr %14, align 1, !tbaa !8, !range !12, !noundef !13
  %160 = trunc i8 %159 to i1
  store i1 %160, ptr %7, align 1
  store i32 1, ptr %17, align 4
  br label %161

161:                                              ; preds = %158, %153
  call void @llvm.lifetime.end.p0(i64 1, ptr %14) #7
  %162 = load i1, ptr %7, align 1
  ret i1 %162
}