; Function Attrs: nofree nosync nounwind memory(readwrite, inaccessiblemem: none) uwtable
define internal fastcc noundef zeroext i1 @H5S__hyper_intersect_block_helper(ptr noundef captures(none) %0, i32 noundef %1, ptr noundef readonly captures(none) %2, ptr noundef readonly captures(none) %3, i64 noundef %4) unnamed_addr #3 {
  %6 = load i8, ptr @H5S_init_g, align 1, !tbaa !3, !range !7, !noundef !8
  %7 = trunc nuw i8 %6 to i1
  %8 = load i8, ptr @H5_libterm_g, align 1, !range !7
  %9 = trunc nuw i8 %8 to i1
  %10 = xor i1 %9, true
  %11 = select i1 %7, i1 true, i1 %10
  br i1 %11, label %12, label %.loopexit, !prof !9

12:                                               ; preds = %5
  %13 = getelementptr inbounds nuw i8, ptr %0, i64 24
  %14 = load i64, ptr %13, align 8, !tbaa !146
  %.not = icmp eq i64 %14, %4
  br i1 %.not, label %.loopexit, label %.preheader

.preheader:                                       ; preds = %12
  %.not51 = icmp eq i32 %1, 0
  br i1 %.not51, label %._crit_edge, label %.lr.ph

.lr.ph:                                           ; preds = %.preheader
  %15 = getelementptr inbounds nuw i8, ptr %0, i64 16
  %16 = load ptr, ptr %15, align 8, !tbaa !31
  %17 = getelementptr inbounds nuw i8, ptr %0, i64 8
  %wide.trip.count = zext i32 %1 to i64
  br label %19

18:                                               ; preds = %25
  %indvars.iv.next = add nuw nsw i64 %indvars.iv, 1
  %exitcond.not = icmp eq i64 %indvars.iv.next, %wide.trip.count
  br i1 %exitcond.not, label %._crit_edge, label %19, !llvm.loop !268

19:                                               ; preds = %.lr.ph, %18
  %indvars.iv = phi i64 [ 0, %.lr.ph ], [ %indvars.iv.next, %18 ]
  %20 = getelementptr inbounds nuw i64, ptr %2, i64 %indvars.iv
  %21 = load i64, ptr %20, align 8, !tbaa !11
  %22 = getelementptr inbounds nuw i64, ptr %16, i64 %indvars.iv
  %23 = load i64, ptr %22, align 8, !tbaa !11
  %24 = icmp ugt i64 %21, %23
  br i1 %24, label %.loopexit, label %25

25:                                               ; preds = %19
  %26 = getelementptr inbounds nuw i64, ptr %3, i64 %indvars.iv
  %27 = load i64, ptr %26, align 8, !tbaa !11
  %28 = load ptr, ptr %17, align 8, !tbaa !31
  %29 = getelementptr inbounds nuw i64, ptr %28, i64 %indvars.iv
  %30 = load i64, ptr %29, align 8, !tbaa !11
  %31 = icmp ult i64 %27, %30
  br i1 %31, label %.loopexit, label %18

._crit_edge:                                      ; preds = %18, %.preheader
  %32 = getelementptr inbounds nuw i8, ptr %0, i64 56
  %.03545 = load ptr, ptr %32, align 8, !tbaa !88
  %.not4246 = icmp eq ptr %.03545, null
  br i1 %.not4246, label %._crit_edge50, label %.lr.ph49

.lr.ph49:                                         ; preds = %._crit_edge
  %33 = add i32 %1, -1
  %34 = getelementptr inbounds nuw i8, ptr %2, i64 8
  %35 = getelementptr inbounds nuw i8, ptr %3, i64 8
  %.pre54 = load i64, ptr %2, align 8, !tbaa !11
  br label %36

36:                                               ; preds = %.lr.ph49, %50
  %37 = phi i64 [ %.pre54, %.lr.ph49 ], [ %51, %50 ]
  %.03547 = phi ptr [ %.03545, %.lr.ph49 ], [ %.035, %50 ]
  %38 = getelementptr inbounds nuw i8, ptr %.03547, i64 8
  %39 = load i64, ptr %38, align 8, !tbaa !97
  %40 = icmp ult i64 %39, %37
  br i1 %40, label %50, label %41

41:                                               ; preds = %36
  %42 = load i64, ptr %.03547, align 8, !tbaa !90
  %43 = load i64, ptr %3, align 8, !tbaa !11
  %.not56.not = icmp ule i64 %42, %43
  br i1 %.not56.not, label %44, label %.loopexit

44:                                               ; preds = %41
  %45 = getelementptr inbounds nuw i8, ptr %.03547, i64 16
  %46 = load ptr, ptr %45, align 8, !tbaa !92
  %47 = icmp eq ptr %46, null
  br i1 %47, label %.loopexit, label %48

48:                                               ; preds = %44
  %49 = tail call fastcc zeroext i1 @H5S__hyper_intersect_block_helper(ptr noundef nonnull %46, i32 noundef %33, ptr noundef nonnull %34, ptr noundef nonnull %35, i64 noundef %4)
  %.pre = load i64, ptr %2, align 8, !tbaa !11
  br i1 %49, label %.loopexit, label %50

50:                                               ; preds = %48, %36
  %51 = phi i64 [ %.pre, %48 ], [ %37, %36 ]
  %.1.in = getelementptr inbounds nuw i8, ptr %.03547, i64 24
  %.035 = load ptr, ptr %.1.in, align 8, !tbaa !88
  %.not42 = icmp eq ptr %.035, null
  br i1 %.not42, label %._crit_edge50, label %36, !llvm.loop !269

._crit_edge50:                                    ; preds = %50, %._crit_edge
  store i64 %4, ptr %13, align 8, !tbaa !146
  br label %.loopexit

.loopexit:                                        ; preds = %25, %19, %48, %44, %41, %5, %12, %._crit_edge50
  %.036 = phi i1 [ false, %12 ], [ false, %5 ], [ false, %._crit_edge50 ], [ %.not56.not, %41 ], [ %.not56.not, %44 ], [ %.not56.not, %48 ], [ false, %19 ], [ false, %25 ]
  ret i1 %.036
}